target datalayout = "e-m:e-p270:32:32-p271:32:32-p272:64:64-i64:64-i128:128-f80:128-n8:16:32:64-S128"
target triple = "x86_64-pc-linux-gnu"

%struct.SDL_BlitInfo = type { ptr, ptr, i32, i32, i32, i32, ptr, ptr, i32, i32, i32, i32, ptr, ptr, ptr, ptr, ptr, ptr, i32, i32, i8, i8, i8, i8 }

; Function Attrs: nounwind uwtable
define internal void @SDL_Blit_BGRA8888_ARGB8888_Scale(ptr noundef %0) #0 {
  %2 = alloca ptr, align 8
  %3 = alloca i32, align 4
  %4 = alloca i32, align 4
  %5 = alloca i32, align 4
  %6 = alloca i32, align 4
  %7 = alloca i32, align 4
  %8 = alloca i64, align 8
  %9 = alloca i64, align 8
  %10 = alloca i64, align 8
  %11 = alloca i64, align 8
  %12 = alloca i64, align 8
  %13 = alloca i64, align 8
  %14 = alloca ptr, align 8
  %15 = alloca ptr, align 8
  %16 = alloca i32, align 4
  store ptr %0, ptr %2, align 8
  call void @llvm.lifetime.start.p0(i64 4, ptr %3) #2
  call void @llvm.lifetime.start.p0(i64 4, ptr %4) #2
  call void @llvm.lifetime.start.p0(i64 4, ptr %5) #2
  call void @llvm.lifetime.start.p0(i64 4, ptr %6) #2
  call void @llvm.lifetime.start.p0(i64 4, ptr %7) #2
  call void @llvm.lifetime.start.p0(i64 8, ptr %8) #2
  call void @llvm.lifetime.start.p0(i64 8, ptr %9) #2
  call void @llvm.lifetime.start.p0(i64 8, ptr %10) #2
  call void @llvm.lifetime.start.p0(i64 8, ptr %11) #2
  call void @llvm.lifetime.start.p0(i64 8, ptr %12) #2
  call void @llvm.lifetime.start.p0(i64 8, ptr %13) #2
  %17 = load ptr, ptr %2, align 8
  %18 = getelementptr inbounds nuw %struct.SDL_BlitInfo, ptr %17, i32 0, i32 3
  %19 = load i32, ptr %18, align 4
  %20 = sext i32 %19 to i64
  %21 = shl i64 %20, 16
  %22 = load ptr, ptr %2, align 8
  %23 = getelementptr inbounds nuw %struct.SDL_BlitInfo, ptr %22, i32 0, i32 9
  %24 = load i32, ptr %23, align 4
  %25 = sext i32 %24 to i64
  %26 = udiv i64 %21, %25
  store i64 %26, ptr %12, align 8
  %27 = load ptr, ptr %2, align 8
  %28 = getelementptr inbounds nuw %struct.SDL_BlitInfo, ptr %27, i32 0, i32 2
  %29 = load i32, ptr %28, align 8
  %30 = sext i32 %29 to i64
  %31 = shl i64 %30, 16
  %32 = load ptr, ptr %2, align 8
  %33 = getelementptr inbounds nuw %struct.SDL_BlitInfo, ptr %32, i32 0, i32 8
  %34 = load i32, ptr %33, align 8
  %35 = sext i32 %34 to i64
  %36 = udiv i64 %31, %35
  store i64 %36, ptr %13, align 8
  %37 = load i64, ptr %12, align 8
  %38 = udiv i64 %37, 2
  store i64 %38, ptr %10, align 8
  br label %39

39:                                               ; preds = %110, %1
  %40 = load ptr, ptr %2, align 8
  %41 = getelementptr inbounds nuw %struct.SDL_BlitInfo, ptr %40, i32 0, i32 9
  %42 = load i32, ptr %41, align 4
  %43 = add nsw i32 %42, -1
  store i32 %43, ptr %41, align 4
  %44 = icmp ne i32 %42, 0
  br i1 %44, label %45, label %122

45:                                               ; preds = %39
  call void @llvm.lifetime.start.p0(i64 8, ptr %14) #2
  store ptr null, ptr %14, align 8
  call void @llvm.lifetime.start.p0(i64 8, ptr %15) #2
  %46 = load ptr, ptr %2, align 8
  %47 = getelementptr inbounds nuw %struct.SDL_BlitInfo, ptr %46, i32 0, i32 7
  %48 = load ptr, ptr %47, align 8
  store ptr %48, ptr %15, align 8
  call void @llvm.lifetime.start.p0(i64 4, ptr %16) #2
  %49 = load ptr, ptr %2, align 8
  %50 = getelementptr inbounds nuw %struct.SDL_BlitInfo, ptr %49, i32 0, i32 8
  %51 = load i32, ptr %50, align 8
  store i32 %51, ptr %16, align 4
  %52 = load i64, ptr %13, align 8
  %53 = udiv i64 %52, 2
  store i64 %53, ptr %11, align 8
  %54 = load i64, ptr %10, align 8
  %55 = lshr i64 %54, 16
  store i64 %55, ptr %8, align 8
  br label %56

56:                                               ; preds = %60, %45
  %57 = load i32, ptr %16, align 4
  %58 = add nsw i32 %57, -1
  store i32 %58, ptr %16, align 4
  %59 = icmp ne i32 %57, 0
  br i1 %59, label %60, label %110

60:                                               ; preds = %56
  %61 = load i64, ptr %11, align 8
  %62 = lshr i64 %61, 16
  store i64 %62, ptr %9, align 8
  %63 = load ptr, ptr %2, align 8
  %64 = getelementptr inbounds nuw %struct.SDL_BlitInfo, ptr %63, i32 0, i32 1
  %65 = load ptr, ptr %64, align 8
  %66 = load i64, ptr %8, align 8
  %67 = load ptr, ptr %2, align 8
  %68 = getelementptr inbounds nuw %struct.SDL_BlitInfo, ptr %67, i32 0, i32 4
  %69 = load i32, ptr %68, align 8
  %70 = sext i32 %69 to i64
  %71 = mul i64 %66, %70
  %72 = getelementptr inbounds nuw i8, ptr %65, i64 %71
  %73 = load i64, ptr %9, align 8
  %74 = mul i64 %73, 4
  %75 = getelementptr inbounds nuw i8, ptr %72, i64 %74
  store ptr %75, ptr %14, align 8
  %76 = load ptr, ptr %14, align 8
  %77 = load i32, ptr %76, align 4
  store i32 %77, ptr %3, align 4
  %78 = load i32, ptr %3, align 4
  %79 = lshr i32 %78, 24
  %80 = trunc i32 %79 to i8
  %81 = zext i8 %80 to i32
  store i32 %81, ptr %6, align 4
  %82 = load i32, ptr %3, align 4
  %83 = lshr i32 %82, 16
  %84 = trunc i32 %83 to i8
  %85 = zext i8 %84 to i32
  store i32 %85, ptr %5, align 4
  %86 = load i32, ptr %3, align 4
  %87 = lshr i32 %86, 8
  %88 = trunc i32 %87 to i8
  %89 = zext i8 %88 to i32
  store i32 %89, ptr %4, align 4
  %90 = load i32, ptr %3, align 4
  %91 = trunc i32 %90 to i8
  %92 = zext i8 %91 to i32
  store i32 %92, ptr %7, align 4
  %93 = load i32, ptr %7, align 4
  %94 = shl i32 %93, 24
  %95 = load i32, ptr %4, align 4
  %96 = shl i32 %95, 16
  %97 = or i32 %94, %96
  %98 = load i32, ptr %5, align 4
  %99 = shl i32 %98, 8
  %100 = or i32 %97, %99
  %101 = load i32, ptr %6, align 4
  %102 = or i32 %100, %101
  store i32 %102, ptr %3, align 4
  %103 = load i32, ptr %3, align 4
  %104 = load ptr, ptr %15, align 8
  store i32 %103, ptr %104, align 4
  %105 = load i64, ptr %13, align 8
  %106 = load i64, ptr %11, align 8
  %107 = add i64 %106, %105
  store i64 %107, ptr %11, align 8
  %108 = load ptr, ptr %15, align 8
  %109 = getelementptr inbounds nuw i32, ptr %108, i32 1
  store ptr %109, ptr %15, align 8
  br label %56, !llvm.loop !312

110:                                              ; preds = %56
  %111 = load i64, ptr %12, align 8
  %112 = load i64, ptr %10, align 8
  %113 = add i64 %112, %111
  store i64 %113, ptr %10, align 8
  %114 = load ptr, ptr %2, align 8
  %115 = getelementptr inbounds nuw %struct.SDL_BlitInfo, ptr %114, i32 0, i32 10
  %116 = load i32, ptr %115, align 8
  %117 = load ptr, ptr %2, align 8
  %118 = getelementptr inbounds nuw %struct.SDL_BlitInfo, ptr %117, i32 0, i32 7
  %119 = load ptr, ptr %118, align 8
  %120 = sext i32 %116 to i64
  %121 = getelementptr inbounds i8, ptr %119, i64 %120
  store ptr %121, ptr %118, align 8
  call void @llvm.lifetime.end.p0(i64 4, ptr %16) #2
  call void @llvm.lifetime.end.p0(i64 8, ptr %15) #2
  call void @llvm.lifetime.end.p0(i64 8, ptr %14) #2
  br label %39, !llvm.loop !313

122:                                              ; preds = %39
  call void @llvm.lifetime.end.p0(i64 8, ptr %13) #2
  call void @llvm.lifetime.end.p0(i64 8, ptr %12) #2
  call void @llvm.lifetime.end.p0(i64 8, ptr %11) #2
  call void @llvm.lifetime.end.p0(i64 8, ptr %10) #2
  call void @llvm.lifetime.end.p0(i64 8, ptr %9) #2
  call void @llvm.lifetime.end.p0(i64 8, ptr %8) #2
  call void @llvm.lifetime.end.p0(i64 4, ptr %7) #2
  call void @llvm.lifetime.end.p0(i64 4, ptr %6) #2
  call void @llvm.lifetime.end.p0(i64 4, ptr %5) #2
  call void @llvm.lifetime.end.p0(i64 4, ptr %4) #2
  call void @llvm.lifetime.end.p0(i64 4, ptr %3) #2
  ret void
}